; Function Attrs: null_pointer_is_valid sspstrong uwtable
define hidden ptr @dccp_port_to_display(ptr noundef %0, i32 noundef %1) local_unnamed_addr #3 {
  %3 = alloca ptr, align 8
  %4 = load i8, ptr getelementptr inbounds nuw (i8, ptr @gbl_resolv_flags, i64 2), align 1, !range !16, !noundef !17
  %5 = trunc nuw i8 %4 to i1
  br i1 %5, label %8, label %6

6:                                                ; preds = %2
  %7 = tail call noalias dereferenceable_or_null(64) ptr @wmem_alloc(ptr noundef %0, i64 noundef 64) #26
  tail call void @uint32_to_str_buf(i32 noundef %1, ptr noundef %7, i64 noundef 64)
  br label %31

8:                                                ; preds = %2
  call void @llvm.lifetime.start.p0(i64 8, ptr nonnull %3) #24
  store ptr null, ptr %3, align 8
  %9 = call fastcc ptr @_serv_name_lookup(i32 noundef 4, i32 noundef %1, ptr noundef nonnull %3)
  %.not.i = icmp eq ptr %9, null
  br i1 %.not.i, label %10, label %serv_name_lookup.exit

10:                                               ; preds = %8
  %11 = load ptr, ptr %3, align 8
  %12 = icmp eq ptr %11, null
  br i1 %12, label %13, label %20

13:                                               ; preds = %10
  %14 = load ptr, ptr @addr_resolv_scope, align 8
  %15 = call noalias dereferenceable_or_null(40) ptr @wmem_alloc0(ptr noundef %14, i64 noundef 40) #26
  store ptr %15, ptr %3, align 8
  %16 = load ptr, ptr @serv_port_hashtable, align 8
  %17 = zext i32 %1 to i64
  %18 = inttoptr i64 %17 to ptr
  %19 = call ptr @wmem_map_insert(ptr noundef %16, ptr noundef %18, ptr noundef %15)
  %.pre.i = load ptr, ptr %3, align 8
  br label %20

20:                                               ; preds = %13, %10
  %21 = phi ptr [ %.pre.i, %13 ], [ %11, %10 ]
  %22 = getelementptr inbounds nuw i8, ptr %21, i64 32
  %23 = load ptr, ptr %22, align 8
  %24 = icmp eq ptr %23, null
  br i1 %24, label %25, label %serv_name_lookup.exit

25:                                               ; preds = %20
  %26 = load ptr, ptr @addr_resolv_scope, align 8
  %27 = call noalias ptr (ptr, ptr, ...) @wmem_strdup_printf(ptr noundef %26, ptr noundef nonnull @.str, i32 noundef %1)
  %28 = load ptr, ptr %3, align 8
  %29 = getelementptr inbounds nuw i8, ptr %28, i64 32
  store ptr %27, ptr %29, align 8
  br label %serv_name_lookup.exit

serv_name_lookup.exit:                            ; preds = %8, %20, %25
  %.0.i = phi ptr [ %9, %8 ], [ %27, %25 ], [ %23, %20 ]
  call void @llvm.lifetime.end.p0(i64 8, ptr nonnull %3) #24
  %30 = call noalias ptr @wmem_strdup(ptr noundef %0, ptr noundef %.0.i)
  br label %31

31:                                               ; preds = %serv_name_lookup.exit, %6
  %.0 = phi ptr [ %30, %serv_name_lookup.exit ], [ %7, %6 ]
  ret ptr %.0
}